; Function Attrs: nounwind uwtable
define void @_ZdaPvSt11align_val_t(ptr noundef %0, i64 noundef %1) local_unnamed_addr #3 {
  %3 = ptrtoint ptr %0 to i64
  %4 = add i64 %3, -1
  %5 = and i64 %4, -33554432
  %6 = inttoptr i64 %5 to ptr
  %7 = icmp slt i64 %4, 33554432
  %8 = icmp eq i64 %5, 0
  %9 = or i1 %7, %8
  br i1 %9, label %mi_free_aligned.exit, label %10, !prof !18

10:                                               ; preds = %2
  %11 = tail call ptr @llvm.thread.pointer()
  %12 = ptrtoint ptr %11 to i64
  %13 = getelementptr inbounds nuw i8, ptr %6, i64 280
  %14 = load atomic i64, ptr %13 monotonic, align 8
  %15 = icmp eq i64 %14, %12
  %16 = sub i64 %3, %5
  %17 = lshr i64 %16, 16
  %18 = getelementptr inbounds nuw i8, ptr %6, i64 288
  %19 = getelementptr inbounds nuw [513 x %struct.mi_page_s], ptr %18, i64 0, i64 %17
  %20 = getelementptr inbounds nuw i8, ptr %19, i64 4
  %21 = load i32, ptr %20, align 4, !tbaa !23
  %22 = zext i32 %21 to i64
  %23 = sub nsw i64 0, %22
  %24 = getelementptr inbounds i8, ptr %19, i64 %23
  br i1 %15, label %25, label %39, !prof !8

25:                                               ; preds = %10
  %26 = getelementptr inbounds nuw i8, ptr %24, i64 14
  %27 = load i8, ptr %26, align 2, !tbaa !24
  %28 = icmp eq i8 %27, 0
  br i1 %28, label %29, label %38, !prof !8

29:                                               ; preds = %25
  %30 = getelementptr inbounds nuw i8, ptr %24, i64 24
  %31 = load ptr, ptr %30, align 8, !tbaa !25
  %32 = ptrtoint ptr %31 to i64
  store i64 %32, ptr %0, align 8, !tbaa !19
  store ptr %0, ptr %30, align 8, !tbaa !25
  %33 = getelementptr inbounds nuw i8, ptr %24, i64 32
  %34 = load i16, ptr %33, align 8, !tbaa !21
  %35 = add i16 %34, -1
  store i16 %35, ptr %33, align 8, !tbaa !21
  %36 = icmp eq i16 %35, 0
  br i1 %36, label %37, label %mi_free_aligned.exit, !prof !18

37:                                               ; preds = %29
  tail call void @_mi_page_retire(ptr noundef nonnull %24) #19
  br label %mi_free_aligned.exit

38:                                               ; preds = %25
  tail call fastcc void @mi_free_generic_local(ptr noundef nonnull %24, ptr noundef %0) #20
  br label %mi_free_aligned.exit

39:                                               ; preds = %10
  tail call fastcc void @mi_free_generic_mt(ptr noundef nonnull %24, ptr noundef nonnull %6, ptr noundef %0) #20
  br label %mi_free_aligned.exit

mi_free_aligned.exit:                             ; preds = %2, %29, %37, %38, %39
  ret void
}